; Function Attrs: nounwind uwtable
define range(i32 0, 2) i32 @ossl_quic_wire_skip_frame_header(ptr noundef captures(none) %0, ptr noundef writeonly captures(none) %1) local_unnamed_addr #2 {
  %3 = getelementptr i8, ptr %0, i64 8
  %.val.i = load i64, ptr %3, align 8, !tbaa !52
  %4 = icmp eq i64 %.val.i, 0
  br i1 %4, label %PACKET_get_quic_vlint.exit, label %5

5:                                                ; preds = %2
  %6 = load ptr, ptr %0, align 8, !tbaa !54
  %7 = load i8, ptr %6, align 1, !tbaa !55
  %8 = lshr i8 %7, 6
  %9 = zext nneg i8 %8 to i32
  %10 = shl nuw nsw i32 1, %9
  %11 = zext nneg i32 %10 to i64
  %12 = icmp ult i64 %.val.i, %11
  br i1 %12, label %PACKET_get_quic_vlint.exit, label %13

13:                                               ; preds = %5
  %14 = tail call i64 @ossl_quic_vlint_decode_unchecked(ptr noundef nonnull %6) #12
  store i64 %14, ptr %1, align 8, !tbaa !56
  %15 = load ptr, ptr %0, align 8, !tbaa !54
  %16 = getelementptr inbounds nuw i8, ptr %15, i64 %11
  store ptr %16, ptr %0, align 8, !tbaa !54
  %17 = load i64, ptr %3, align 8, !tbaa !52
  %18 = sub i64 %17, %11
  store i64 %18, ptr %3, align 8, !tbaa !52
  br label %PACKET_get_quic_vlint.exit

PACKET_get_quic_vlint.exit:                       ; preds = %2, %5, %13
  %.0.i = phi i32 [ 1, %13 ], [ 0, %2 ], [ 0, %5 ]
  ret i32 %.0.i
}